; Function Attrs: mustprogress uwtable
define internal void @_ZN9grpc_core12_GLOBAL__N_15CdsLb18ResetBackoffLockedEv(ptr noundef nonnull readonly align 8 captures(none) dereferenceable(152) %0) unnamed_addr #3 align 2 {
  %2 = getelementptr inbounds nuw i8, ptr %0, i64 136
  %3 = load ptr, ptr %2, align 8, !tbaa !105
  %.not = icmp eq ptr %3, null
  br i1 %.not, label %8, label %4

4:                                                ; preds = %1
  %5 = load ptr, ptr %3, align 8, !tbaa !6
  %6 = getelementptr inbounds nuw i8, ptr %5, i64 48
  %7 = load ptr, ptr %6, align 8
  tail call void %7(ptr noundef nonnull align 8 dereferenceable(56) %3)
  br label %8

8:                                                ; preds = %4, %1
  ret void
}